#include <math.h>
#include <stdio.h>
#include <stdlib.h>
#include <string.h>


int main()
{
	int s,i,j,n,r,ok;
	char a[505];
	gets(a);
	n=strlen(a);
	for (r=2;r<=n;r++)
		for (i=0;i<=n-r;i++)
		{
			ok=1;
			j=i+r-1;
		    for (s=i;s<=i+(j-i)/2;s++)
				if (a[s]!=a[j+i-s])
				{ok=0;break;}
			if (ok)
			{
				for (s=i;s<=j;s++)
					printf("%c",a[s]);
                printf("\n");
            }
		}
  }
